target datalayout = "e-m:e-p270:32:32-p271:32:32-p272:64:64-i64:64-i128:128-f80:128-n8:16:32:64-S128"
target triple = "x86_64-pc-linux-gnu"

%struct._GtkDarktableButton = type { %struct._GtkButton, ptr, i32, ptr, %struct._GdkRGBA, %struct._GdkRGBA, ptr }
%struct._GtkButton = type { %struct._GtkBin, ptr }
%struct._GtkBin = type { %struct._GtkContainer, ptr }
%struct._GtkContainer = type { %struct._GtkWidget, ptr }
%struct._GtkWidget = type { %struct._GObject, ptr }
%struct._GObject = type { %struct._GTypeInstance, i32, ptr }
%struct._GTypeInstance = type { ptr }
%struct._GdkRGBA = type { double, double, double, double }

@.str.2 = private unnamed_addr constant [15 x i8] c"button != NULL\00", align 1
@__func__.dtgtk_button_set_active = private unnamed_addr constant [24 x i8] c"dtgtk_button_set_active\00", align 1

; Function Attrs: nounwind uwtable
define void @dtgtk_button_set_active(ptr noundef %0, i32 noundef %1) #0 {
  %3 = alloca ptr, align 8
  %4 = alloca i32, align 4
  %5 = alloca i32, align 4
  %6 = alloca i32, align 4
  store ptr %0, ptr %3, align 8, !tbaa !16
  store i32 %1, ptr %4, align 4, !tbaa !13
  br label %7

7:                                                ; preds = %2
  call void @llvm.lifetime.start.p0(i64 4, ptr %5) #9
  %8 = load ptr, ptr %3, align 8, !tbaa !16
  %9 = icmp ne ptr %8, null
  br i1 %9, label %10, label %11

10:                                               ; preds = %7
  store i32 1, ptr %5, align 4, !tbaa !13
  br label %12

11:                                               ; preds = %7
  store i32 0, ptr %5, align 4, !tbaa !13
  br label %12

12:                                               ; preds = %11, %10
  %13 = load i32, ptr %5, align 4, !tbaa !13
  store i32 %13, ptr %6, align 4, !tbaa !13
  call void @llvm.lifetime.end.p0(i64 4, ptr %5) #9
  %14 = load i32, ptr %6, align 4, !tbaa !13
  %15 = sext i32 %14 to i64
  %16 = call i64 @llvm.expect.i64(i64 %15, i64 1)
  %17 = icmp ne i64 %16, 0
  br i1 %17, label %18, label %19

18:                                               ; preds = %12
  br label %20

19:                                               ; preds = %12
  call void @g_return_if_fail_warning(ptr noundef null, ptr noundef @__func__.dtgtk_button_set_active, ptr noundef @.str.2)
  br label %34

20:                                               ; preds = %18
  br label %21

21:                                               ; preds = %20
  %22 = load i32, ptr %4, align 4, !tbaa !13
  %23 = icmp ne i32 %22, 0
  br i1 %23, label %24, label %29

24:                                               ; preds = %21
  %25 = load ptr, ptr %3, align 8, !tbaa !16
  %26 = getelementptr inbounds nuw %struct._GtkDarktableButton, ptr %25, i32 0, i32 2
  %27 = load i32, ptr %26, align 8, !tbaa !35
  %28 = or i32 %27, 16
  store i32 %28, ptr %26, align 8, !tbaa !35
  br label %34

29:                                               ; preds = %21
  %30 = load ptr, ptr %3, align 8, !tbaa !16
  %31 = getelementptr inbounds nuw %struct._GtkDarktableButton, ptr %30, i32 0, i32 2
  %32 = load i32, ptr %31, align 8, !tbaa !35
  %33 = and i32 %32, -17
  store i32 %33, ptr %31, align 8, !tbaa !35
  br label %34

34:                                               ; preds = %19, %29, %24
  ret void
}