; Function Attrs: nounwind uwtable
define void @dtgtk_button_set_active(ptr noundef %0, i32 noundef %1) local_unnamed_addr #0 {
  %.not = icmp eq ptr %0, null
  br i1 %.not, label %3, label %4, !prof !32

3:                                                ; preds = %2
  tail call void @g_return_if_fail_warning(ptr noundef null, ptr noundef nonnull @__func__.dtgtk_button_set_active, ptr noundef nonnull @.str.2) #9
  br label %11

4:                                                ; preds = %2
  %.not6 = icmp eq i32 %1, 0
  %5 = getelementptr inbounds nuw i8, ptr %0, i64 64
  %6 = load i32, ptr %5, align 8, !tbaa !29
  br i1 %.not6, label %9, label %7

7:                                                ; preds = %4
  %8 = or i32 %6, 16
  store i32 %8, ptr %5, align 8, !tbaa !29
  br label %11

9:                                                ; preds = %4
  %10 = and i32 %6, -17
  store i32 %10, ptr %5, align 8, !tbaa !29
  br label %11

11:                                               ; preds = %9, %7, %3
  ret void
}